target datalayout = "e-m:e-p270:32:32-p271:32:32-p272:64:64-i64:64-i128:128-f80:128-n8:16:32:64-S128"
target triple = "x86_64-pc-linux-gnu"

%struct._value_string_ext = type { ptr, i32, i32, ptr, ptr }

@hf_usbip_path = internal global i32 0, align 4
@hf_usbip_busid = internal global i32 0, align 4
@hf_usbip_busnum = internal global i32 0, align 4
@hf_usbip_devnum = internal global i32 0, align 4
@hf_usbip_speed = internal global i32 0, align 4
@hf_usbip_idVendor = internal global i32 0, align 4
@hf_usbip_idProduct = internal global i32 0, align 4
@hf_usbip_bcdDevice = internal global i32 0, align 4
@hf_usbip_bDeviceClass = internal global i32 0, align 4
@hf_usbip_bDeviceSubClass = internal global i32 0, align 4
@hf_usbip_bDeviceProtocol = internal global i32 0, align 4
@hf_usbip_bConfigurationValue = internal global i32 0, align 4
@hf_usbip_bNumConfigurations = internal global i32 0, align 4
@hf_usbip_bNumInterfaces = internal global i32 0, align 4
@.str.129 = private unnamed_addr constant [12 x i8] c"%s (0x%04x)\00", align 1
@ext_usb_products_vals = external global %struct._value_string_ext, align 8
@.str.130 = private unnamed_addr constant [8 x i8] c"Unknown\00", align 1

; Function Attrs: null_pointer_is_valid sspstrong uwtable
define internal i32 @dissect_device(ptr noundef %0, ptr noundef %1, i32 noundef %2) #0 {
  %4 = alloca ptr, align 8
  %5 = alloca ptr, align 8
  %6 = alloca i32, align 4
  %7 = alloca i32, align 4
  %8 = alloca i32, align 4
  %9 = alloca i32, align 4
  store ptr %0, ptr %4, align 8
  store ptr %1, ptr %5, align 8
  store i32 %2, ptr %6, align 4
  call void @llvm.lifetime.start.p0(i64 4, ptr %7) #5
  call void @llvm.lifetime.start.p0(i64 4, ptr %8) #5
  call void @llvm.lifetime.start.p0(i64 4, ptr %9) #5
  %10 = load ptr, ptr %4, align 8
  %11 = load i32, ptr @hf_usbip_path, align 4
  %12 = load ptr, ptr %5, align 8
  %13 = load i32, ptr %6, align 4
  %14 = call ptr @proto_tree_add_item(ptr noundef %10, i32 noundef %11, ptr noundef %12, i32 noundef %13, i32 noundef 256, i32 noundef 0)
  %15 = load i32, ptr %6, align 4
  %16 = add i32 %15, 256
  store i32 %16, ptr %6, align 4
  %17 = load ptr, ptr %4, align 8
  %18 = load i32, ptr @hf_usbip_busid, align 4
  %19 = load ptr, ptr %5, align 8
  %20 = load i32, ptr %6, align 4
  %21 = call ptr @proto_tree_add_item(ptr noundef %17, i32 noundef %18, ptr noundef %19, i32 noundef %20, i32 noundef 32, i32 noundef 0)
  %22 = load i32, ptr %6, align 4
  %23 = add i32 %22, 32
  store i32 %23, ptr %6, align 4
  %24 = load ptr, ptr %4, align 8
  %25 = load i32, ptr @hf_usbip_busnum, align 4
  %26 = load ptr, ptr %5, align 8
  %27 = load i32, ptr %6, align 4
  %28 = call ptr @proto_tree_add_item(ptr noundef %24, i32 noundef %25, ptr noundef %26, i32 noundef %27, i32 noundef 4, i32 noundef 0)
  %29 = load i32, ptr %6, align 4
  %30 = add i32 %29, 4
  store i32 %30, ptr %6, align 4
  %31 = load ptr, ptr %4, align 8
  %32 = load i32, ptr @hf_usbip_devnum, align 4
  %33 = load ptr, ptr %5, align 8
  %34 = load i32, ptr %6, align 4
  %35 = call ptr @proto_tree_add_item(ptr noundef %31, i32 noundef %32, ptr noundef %33, i32 noundef %34, i32 noundef 4, i32 noundef 0)
  %36 = load i32, ptr %6, align 4
  %37 = add i32 %36, 4
  store i32 %37, ptr %6, align 4
  %38 = load ptr, ptr %4, align 8
  %39 = load i32, ptr @hf_usbip_speed, align 4
  %40 = load ptr, ptr %5, align 8
  %41 = load i32, ptr %6, align 4
  %42 = call ptr @proto_tree_add_item(ptr noundef %38, i32 noundef %39, ptr noundef %40, i32 noundef %41, i32 noundef 4, i32 noundef 0)
  %43 = load i32, ptr %6, align 4
  %44 = add i32 %43, 4
  store i32 %44, ptr %6, align 4
  %45 = load ptr, ptr %4, align 8
  %46 = load i32, ptr @hf_usbip_idVendor, align 4
  %47 = load ptr, ptr %5, align 8
  %48 = load i32, ptr %6, align 4
  %49 = call ptr @proto_tree_add_item_ret_uint(ptr noundef %45, i32 noundef %46, ptr noundef %47, i32 noundef %48, i32 noundef 2, i32 noundef 0, ptr noundef %8)
  %50 = load i32, ptr %6, align 4
  %51 = add i32 %50, 2
  store i32 %51, ptr %6, align 4
  %52 = load ptr, ptr %5, align 8
  %53 = load i32, ptr %6, align 4
  %54 = call zeroext i16 @tvb_get_ntohs(ptr noundef %52, i32 noundef %53)
  %55 = zext i16 %54 to i32
  store i32 %55, ptr %9, align 4
  %56 = load i32, ptr %8, align 4
  %57 = shl i32 %56, 16
  %58 = load i32, ptr %9, align 4
  %59 = or i32 %57, %58
  store i32 %59, ptr %7, align 4
  %60 = load ptr, ptr %4, align 8
  %61 = load i32, ptr @hf_usbip_idProduct, align 4
  %62 = load ptr, ptr %5, align 8
  %63 = load i32, ptr %6, align 4
  %64 = load i32, ptr %9, align 4
  %65 = load i32, ptr %7, align 4
  %66 = call ptr @val_to_str_ext_const(i32 noundef %65, ptr noundef @ext_usb_products_vals, ptr noundef @.str.130)
  %67 = load i32, ptr %9, align 4
  %68 = call ptr (ptr, i32, ptr, i32, i32, i32, ptr, ...) @proto_tree_add_uint_format_value(ptr noundef %60, i32 noundef %61, ptr noundef %62, i32 noundef %63, i32 noundef 2, i32 noundef %64, ptr noundef @.str.129, ptr noundef %66, i32 noundef %67)
  %69 = load i32, ptr %6, align 4
  %70 = add i32 %69, 2
  store i32 %70, ptr %6, align 4
  %71 = load ptr, ptr %4, align 8
  %72 = load i32, ptr @hf_usbip_bcdDevice, align 4
  %73 = load ptr, ptr %5, align 8
  %74 = load i32, ptr %6, align 4
  %75 = call ptr @proto_tree_add_item(ptr noundef %71, i32 noundef %72, ptr noundef %73, i32 noundef %74, i32 noundef 2, i32 noundef 0)
  %76 = load i32, ptr %6, align 4
  %77 = add i32 %76, 2
  store i32 %77, ptr %6, align 4
  %78 = load ptr, ptr %4, align 8
  %79 = load i32, ptr @hf_usbip_bDeviceClass, align 4
  %80 = load ptr, ptr %5, align 8
  %81 = load i32, ptr %6, align 4
  %82 = call ptr @proto_tree_add_item(ptr noundef %78, i32 noundef %79, ptr noundef %80, i32 noundef %81, i32 noundef 1, i32 noundef 0)
  %83 = load i32, ptr %6, align 4
  %84 = add i32 %83, 1
  store i32 %84, ptr %6, align 4
  %85 = load ptr, ptr %4, align 8
  %86 = load i32, ptr @hf_usbip_bDeviceSubClass, align 4
  %87 = load ptr, ptr %5, align 8
  %88 = load i32, ptr %6, align 4
  %89 = call ptr @proto_tree_add_item(ptr noundef %85, i32 noundef %86, ptr noundef %87, i32 noundef %88, i32 noundef 1, i32 noundef 0)
  %90 = load i32, ptr %6, align 4
  %91 = add i32 %90, 1
  store i32 %91, ptr %6, align 4
  %92 = load ptr, ptr %4, align 8
  %93 = load i32, ptr @hf_usbip_bDeviceProtocol, align 4
  %94 = load ptr, ptr %5, align 8
  %95 = load i32, ptr %6, align 4
  %96 = call ptr @proto_tree_add_item(ptr noundef %92, i32 noundef %93, ptr noundef %94, i32 noundef %95, i32 noundef 1, i32 noundef 0)
  %97 = load i32, ptr %6, align 4
  %98 = add i32 %97, 1
  store i32 %98, ptr %6, align 4
  %99 = load ptr, ptr %4, align 8
  %100 = load i32, ptr @hf_usbip_bConfigurationValue, align 4
  %101 = load ptr, ptr %5, align 8
  %102 = load i32, ptr %6, align 4
  %103 = call ptr @proto_tree_add_item(ptr noundef %99, i32 noundef %100, ptr noundef %101, i32 noundef %102, i32 noundef 1, i32 noundef 0)
  %104 = load i32, ptr %6, align 4
  %105 = add i32 %104, 1
  store i32 %105, ptr %6, align 4
  %106 = load ptr, ptr %4, align 8
  %107 = load i32, ptr @hf_usbip_bNumConfigurations, align 4
  %108 = load ptr, ptr %5, align 8
  %109 = load i32, ptr %6, align 4
  %110 = call ptr @proto_tree_add_item(ptr noundef %106, i32 noundef %107, ptr noundef %108, i32 noundef %109, i32 noundef 1, i32 noundef 0)
  %111 = load i32, ptr %6, align 4
  %112 = add i32 %111, 1
  store i32 %112, ptr %6, align 4
  %113 = load ptr, ptr %4, align 8
  %114 = load i32, ptr @hf_usbip_bNumInterfaces, align 4
  %115 = load ptr, ptr %5, align 8
  %116 = load i32, ptr %6, align 4
  %117 = call ptr @proto_tree_add_item(ptr noundef %113, i32 noundef %114, ptr noundef %115, i32 noundef %116, i32 noundef 1, i32 noundef 0)
  %118 = load i32, ptr %6, align 4
  %119 = add i32 %118, 1
  store i32 %119, ptr %6, align 4
  %120 = load i32, ptr %6, align 4
  call void @llvm.lifetime.end.p0(i64 4, ptr %9) #5
  call void @llvm.lifetime.end.p0(i64 4, ptr %8) #5
  call void @llvm.lifetime.end.p0(i64 4, ptr %7) #5
  ret i32 %120
}