; Function Attrs: null_pointer_is_valid sspstrong uwtable
define internal fastcc noundef i32 @dissect_device(ptr noundef %0, ptr noundef %1, i32 noundef %2) unnamed_addr #0 {
  %4 = alloca i32, align 4
  call void @llvm.lifetime.start.p0(i64 4, ptr nonnull %4) #6
  %5 = load i32, ptr @hf_usbip_path, align 4
  %6 = tail call ptr @proto_tree_add_item(ptr noundef %0, i32 noundef %5, ptr noundef %1, i32 noundef %2, i32 noundef 256, i32 noundef 0)
  %7 = add i32 %2, 256
  %8 = load i32, ptr @hf_usbip_busid, align 4
  %9 = tail call ptr @proto_tree_add_item(ptr noundef %0, i32 noundef %8, ptr noundef %1, i32 noundef %7, i32 noundef 32, i32 noundef 0)
  %10 = add i32 %2, 288
  %11 = load i32, ptr @hf_usbip_busnum, align 4
  %12 = tail call ptr @proto_tree_add_item(ptr noundef %0, i32 noundef %11, ptr noundef %1, i32 noundef %10, i32 noundef 4, i32 noundef 0)
  %13 = add i32 %2, 292
  %14 = load i32, ptr @hf_usbip_devnum, align 4
  %15 = tail call ptr @proto_tree_add_item(ptr noundef %0, i32 noundef %14, ptr noundef %1, i32 noundef %13, i32 noundef 4, i32 noundef 0)
  %16 = add i32 %2, 296
  %17 = load i32, ptr @hf_usbip_speed, align 4
  %18 = tail call ptr @proto_tree_add_item(ptr noundef %0, i32 noundef %17, ptr noundef %1, i32 noundef %16, i32 noundef 4, i32 noundef 0)
  %19 = add i32 %2, 300
  %20 = load i32, ptr @hf_usbip_idVendor, align 4
  %21 = call ptr @proto_tree_add_item_ret_uint(ptr noundef %0, i32 noundef %20, ptr noundef %1, i32 noundef %19, i32 noundef 2, i32 noundef 0, ptr noundef nonnull %4)
  %22 = add i32 %2, 302
  %23 = call zeroext i16 @tvb_get_ntohs(ptr noundef %1, i32 noundef %22)
  %24 = zext i16 %23 to i32
  %25 = load i32, ptr %4, align 4
  %26 = shl i32 %25, 16
  %27 = or disjoint i32 %26, %24
  %28 = load i32, ptr @hf_usbip_idProduct, align 4
  %29 = call ptr @val_to_str_ext_const(i32 noundef %27, ptr noundef nonnull @ext_usb_products_vals, ptr noundef nonnull @.str.130)
  %30 = call ptr (ptr, i32, ptr, i32, i32, i32, ptr, ...) @proto_tree_add_uint_format_value(ptr noundef %0, i32 noundef %28, ptr noundef %1, i32 noundef %22, i32 noundef 2, i32 noundef %24, ptr noundef nonnull @.str.129, ptr noundef %29, i32 noundef %24)
  %31 = add i32 %2, 304
  %32 = load i32, ptr @hf_usbip_bcdDevice, align 4
  %33 = call ptr @proto_tree_add_item(ptr noundef %0, i32 noundef %32, ptr noundef %1, i32 noundef %31, i32 noundef 2, i32 noundef 0)
  %34 = add i32 %2, 306
  %35 = load i32, ptr @hf_usbip_bDeviceClass, align 4
  %36 = call ptr @proto_tree_add_item(ptr noundef %0, i32 noundef %35, ptr noundef %1, i32 noundef %34, i32 noundef 1, i32 noundef 0)
  %37 = add i32 %2, 307
  %38 = load i32, ptr @hf_usbip_bDeviceSubClass, align 4
  %39 = call ptr @proto_tree_add_item(ptr noundef %0, i32 noundef %38, ptr noundef %1, i32 noundef %37, i32 noundef 1, i32 noundef 0)
  %40 = add i32 %2, 308
  %41 = load i32, ptr @hf_usbip_bDeviceProtocol, align 4
  %42 = call ptr @proto_tree_add_item(ptr noundef %0, i32 noundef %41, ptr noundef %1, i32 noundef %40, i32 noundef 1, i32 noundef 0)
  %43 = add i32 %2, 309
  %44 = load i32, ptr @hf_usbip_bConfigurationValue, align 4
  %45 = call ptr @proto_tree_add_item(ptr noundef %0, i32 noundef %44, ptr noundef %1, i32 noundef %43, i32 noundef 1, i32 noundef 0)
  %46 = add i32 %2, 310
  %47 = load i32, ptr @hf_usbip_bNumConfigurations, align 4
  %48 = call ptr @proto_tree_add_item(ptr noundef %0, i32 noundef %47, ptr noundef %1, i32 noundef %46, i32 noundef 1, i32 noundef 0)
  %49 = add i32 %2, 311
  %50 = load i32, ptr @hf_usbip_bNumInterfaces, align 4
  %51 = call ptr @proto_tree_add_item(ptr noundef %0, i32 noundef %50, ptr noundef %1, i32 noundef %49, i32 noundef 1, i32 noundef 0)
  %52 = add i32 %2, 312
  call void @llvm.lifetime.end.p0(i64 4, ptr nonnull %4) #6
  ret i32 %52
}